(iblockchain
Blockchain
p1
(dp2
S'chain'
p3
(lp4
(iblock
Block_Phase_Three
p5
(dp6
S'tally'
p7
(dp8
S'Ankur Jain'
p9
I3
sS'Sham Prasad'
p10
I1
sS'Shane Lockwood'
p11
I3
ssba(iblock
Block_Phase_Three
p12
(dp13
g7
(dp14
S'Ankur Jain'
p15
I3
sS'Sham Prasad'
p16
I1
sS'Shane Lockwood'
p17
I3
ssba(iblock
Block_Phase_Three
p18
(dp19
g7
(dp20
S'Ankur Jain'
p21
I3
sS'Sham Prasad'
p22
I1
sS'Shane Lockwood'
p23
I3
ssba(iblock
Block_Phase_Three
p24
(dp25
g7
(dp26
S'Ankur Jain'
p27
I3
sS'Sham Prasad'
p28
I1
sS'Shane Lockwood'
p29
I3
ssba(iblock
Block_Phase_Three
p30
(dp31
g7
(dp32
S'Ankur Jain'
p33
I3
sS'Sham Prasad'
p34
I1
sS'Shane Lockwood'
p35
I3
ssba(iblock
Block_Phase_Three
p36
(dp37
g7
(dp38
S'Ankur Jain'
p39
I3
sS'Sham Prasad'
p40
I1
sS'Shane Lockwood'
p41
I3
ssba(iblock
Block_Phase_Three
p42
(dp43
g7
(dp44
S'Ankur Jain'
p45
I3
sS'Sham Prasad'
p46
I1
sS'Shane Lockwood'
p47
I3
ssba(iblock
Block_Phase_Three
p48
(dp49
g7
(dp50
S'Ankur Jain'
p51
I3
sS'Sham Prasad'
p52
I1
sS'Shane Lockwood'
p53
I3
ssba(iblock
Block_Phase_Three
p54
(dp55
g7
(dp56
S'Ankur Jain'
p57
I3
sS'Sham Prasad'
p58
I1
sS'Shane Lockwood'
p59
I3
ssba(iblock
Block_Phase_Three
p60
(dp61
g7
(dp62
S'Ankur Jain'
p63
I3
sS'Sham Prasad'
p64
I1
sS'Shane Lockwood'
p65
I3
ssba(iblock
Block_Phase_Three
p66
(dp67
g7
(dp68
S'Ankur Jain'
p69
I3
sS'Sham Prasad'
p70
I1
sS'Shane Lockwood'
p71
I3
ssba(iblock
Block_Phase_Three
p72
(dp73
g7
(dp74
S'Ankur Jain'
p75
I3
sS'Sham Prasad'
p76
I1
sS'Shane Lockwood'
p77
I3
ssba(iblock
Block_Phase_Three
p78
(dp79
g7
(dp80
S'Ankur Jain'
p81
I3
sS'Sham Prasad'
p82
I1
sS'Shane Lockwood'
p83
I3
ssba(iblock
Block_Phase_Three
p84
(dp85
g7
(dp86
S'Ankur Jain'
p87
I3
sS'Sham Prasad'
p88
I1
sS'Shane Lockwood'
p89
I3
ssba(iblock
Block_Phase_Three
p90
(dp91
g7
(dp92
S'Ankur Jain'
p93
I3
sS'Sham Prasad'
p94
I1
sS'Shane Lockwood'
p95
I3
ssba(iblock
Block_Phase_Three
p96
(dp97
g7
(dp98
S'Ankur Jain'
p99
I3
sS'Sham Prasad'
p100
I1
sS'Shane Lockwood'
p101
I3
ssba(iblock
Block_Phase_Three
p102
(dp103
g7
(dp104
S'Ankur Jain'
p105
I3
sS'Sham Prasad'
p106
I1
sS'Shane Lockwood'
p107
I3
ssba(iblock
Block_Phase_Three
p108
(dp109
g7
(dp110
S'Ankur Jain'
p111
I3
sS'Sham Prasad'
p112
I1
sS'Shane Lockwood'
p113
I3
ssba(iblock
Block_Phase_Three
p114
(dp115
g7
(dp116
S'Ankur Jain'
p117
I3
sS'Sham Prasad'
p118
I1
sS'Shane Lockwood'
p119
I3
ssba(iblock
Block_Phase_Three
p120
(dp121
g7
(dp122
S'Ankur Jain'
p123
I3
sS'Sham Prasad'
p124
I1
sS'Shane Lockwood'
p125
I3
ssba(iblock
Block_Phase_Three
p126
(dp127
g7
(dp128
S'Ankur Jain'
p129
I3
sS'Sham Prasad'
p130
I1
sS'Shane Lockwood'
p131
I3
ssbasS'size'
p132
I21
sb.