(iblockchain
Blockchain
p1
(dp2
S'id'
p3
I8066
sS'chain'
p4
(lp5
(iblock
Block_Phase_One
p6
(dp7
S'voter'
p8
S'shane'
p9
sS'candidates'
p10
(lp11
S'Shane'
p12
aS'Ankur'
p13
aS'Sham'
p14
asS'voters'
p15
(lp16
g12
ag13
ag14
asbasS'size'
p17
I1
sb.