(iblockchain
Blockchain
p1
(dp2
S'id'
p3
I4230
sS'chain'
p4
(lp5
(iblock
Block_Phase_One
p6
(dp7
S'voter'
p8
S'Shane'
p9
sS'candidates'
p10
(lp11
S'Shane'
p12
aS'Ankur'
p13
aS'Sham'
p14
asS'voters'
p15
(lp16
g12
ag13
ag14
asba(iblock
Block_Phase_One
p17
(dp18
g8
S'Ankur'
p19
sg10
(lp20
S'Shane'
p21
aS'Ankur'
p22
aS'Sham'
p23
asg15
(lp24
g21
ag22
ag23
asba(iblock
Block_Phase_One
p25
(dp26
g8
S'Sham'
p27
sg10
(lp28
S'Shane'
p29
aS'Ankur'
p30
aS'Sham'
p31
asg15
(lp32
g29
ag30
ag31
asbasS'size'
p33
I3
sb.