(iblockchain
Blockchain
p1
(dp2
S'chain'
p3
(lp4
(iblock
Block_Phase_Two
p5
(dp6
S'candidate'
p7
S'Shane Lockwood'
p8
sba(iblock
Block_Phase_Two
p9
(dp10
g7
S'Shane Lockwood'
p11
sba(iblock
Block_Phase_Two
p12
(dp13
g7
S'Ankur Jain'
p14
sba(iblock
Block_Phase_Two
p15
(dp16
g7
S'Sham Prasad'
p17
sba(iblock
Block_Phase_Two
p18
(dp19
g7
S'Ankur Jain'
p20
sba(iblock
Block_Phase_Two
p21
(dp22
g7
S'Shane Lockwood'
p23
sba(iblock
Block_Phase_Two
p24
(dp25
g7
S'Ankur Jain'
p26
sbasS'size'
p27
I7
sb.