(iblockchain
Blockchain
p1
(dp2
S'chain'
p3
(lp4
(iblock
Block_Phase_One
p5
(dp6
S'candidates'
p7
(lp8
S'Shane Lockwoo'
p9
aS'Ankur Jain'
p10
aS'Sham Prasad'
p11
asba(iblock
Block_Phase_One
p12
(dp13
g7
(lp14
S'Shane Lockwoo'
p15
aS'Ankur Jain'
p16
aS'Sham Prasad'
p17
asba(iblock
Block_Phase_One
p18
(dp19
g7
(lp20
S'Shane Lockwoo'
p21
aS'Ankur Jain'
p22
aS'Sham Prasad'
p23
asba(iblock
Block_Phase_One
p24
(dp25
g7
(lp26
S'Shane Lockwoo'
p27
aS'Ankur Jain'
p28
aS'Sham Prasad'
p29
asba(iblock
Block_Phase_One
p30
(dp31
g7
(lp32
S'Shane Lockwoo'
p33
aS'Ankur Jain'
p34
aS'Sham Prasad'
p35
asba(iblock
Block_Phase_One
p36
(dp37
g7
(lp38
S'Shane Lockwoo'
p39
aS'Ankur Jain'
p40
aS'Sham Prasad'
p41
asba(iblock
Block_Phase_One
p42
(dp43
g7
(lp44
S'Shane Lockwoo'
p45
aS'Ankur Jain'
p46
aS'Sham Prasad'
p47
asba(iblock
Block_Phase_One
p48
(dp49
g7
(lp50
S'Shane Lockwoo'
p51
aS'Ankur Jain'
p52
aS'Sham Prasad'
p53
asba(iblock
Block_Phase_One
p54
(dp55
g7
(lp56
S'Shane Lockwoo'
p57
aS'Ankur Jain'
p58
aS'Sham Prasad'
p59
asba(iblock
Block_Phase_One
p60
(dp61
g7
(lp62
S'Shane Lockwoo'
p63
aS'Ankur Jain'
p64
aS'Sham Prasad'
p65
asba(iblock
Block_Phase_One
p66
(dp67
g7
(lp68
S'Shane Lockwoo'
p69
aS'Ankur Jain'
p70
aS'Sham Prasad'
p71
asba(iblock
Block_Phase_One
p72
(dp73
g7
(lp74
S'Shane Lockwoo'
p75
aS'Ankur Jain'
p76
aS'Sham Prasad'
p77
asba(iblock
Block_Phase_One
p78
(dp79
g7
(lp80
S'Shane Lockwoo'
p81
aS'Ankur Jain'
p82
aS'Sham Prasad'
p83
asba(iblock
Block_Phase_One
p84
(dp85
g7
(lp86
S'Shane Lockwoo'
p87
aS'Ankur Jain'
p88
aS'Sham Prasad'
p89
asba(iblock
Block_Phase_One
p90
(dp91
g7
(lp92
S'Shane Lockwoo'
p93
aS'Ankur Jain'
p94
aS'Sham Prasad'
p95
asba(iblock
Block_Phase_One
p96
(dp97
g7
(lp98
S'Shane Lockwoo'
p99
aS'Ankur Jain'
p100
aS'Sham Prasad'
p101
asba(iblock
Block_Phase_One
p102
(dp103
g7
(lp104
S'Shane Lockwoo'
p105
aS'Ankur Jain'
p106
aS'Sham Prasad'
p107
asba(iblock
Block_Phase_One
p108
(dp109
g7
(lp110
S'Shane Lockwoo'
p111
aS'Ankur Jain'
p112
aS'Sham Prasad'
p113
asba(iblock
Block_Phase_One
p114
(dp115
g7
(lp116
S'Shane Lockwoo'
p117
aS'Ankur Jain'
p118
aS'Sham Prasad'
p119
asba(iblock
Block_Phase_One
p120
(dp121
g7
(lp122
S'Shane Lockwoo'
p123
aS'Ankur Jain'
p124
aS'Sham Prasad'
p125
asba(iblock
Block_Phase_One
p126
(dp127
g7
(lp128
S'Shane Lockwoo'
p129
aS'Ankur Jain'
p130
aS'Sham Prasad'
p131
asba(iblock
Block_Phase_One
p132
(dp133
g7
(lp134
S'Shane Lockwoo'
p135
aS'Ankur Jain'
p136
aS'Sham Prasad'
p137
asba(iblock
Block_Phase_One
p138
(dp139
g7
(lp140
S'Shane Lockwoo'
p141
aS'Ankur Jain'
p142
aS'Sham Prasad'
p143
asbasS'size'
p144
I23
sb.