(iblockchain
Blockchain
p1
(dp2
S'chain'
p3
(lp4
(iblock
Block_Phase_One
p5
(dp6
S'candidates'
p7
(lp8
S'Ankur Jai'
p9
aS'Shane Lockwood'
p10
aS'Sham Prasad'
p11
asba(iblock
Block_Phase_One
p12
(dp13
g7
(lp14
S'Ankur Jai'
p15
aS'Shane Lockwood'
p16
aS'Sham Prasad'
p17
asba(iblock
Block_Phase_One
p18
(dp19
g7
(lp20
S'Ankur Jai'
p21
aS'Shane Lockwood'
p22
aS'Sham Prasad'
p23
asba(iblock
Block_Phase_One
p24
(dp25
g7
(lp26
S'Ankur Jai'
p27
aS'Shane Lockwood'
p28
aS'Sham Prasad'
p29
asbasS'size'
p30
I4
sb.